target datalayout = "e-m:e-p270:32:32-p271:32:32-p272:64:64-i64:64-i128:128-f80:128-n8:16:32:64-S128"
target triple = "x86_64-pc-linux-gnu"

%struct.QHashData = type <{ ptr, ptr, %"class.QtPrivate::RefCount", i32, i32, i16, i16, i32, i32, i32, [4 x i8] }>
%"class.QtPrivate::RefCount" = type { %class.QBasicAtomicInteger }
%class.QBasicAtomicInteger = type { %"struct.std::atomic" }
%"struct.std::atomic" = type { %"struct.std::__atomic_base" }
%"struct.std::__atomic_base" = type { i32 }
%class.Paintbox = type <{ %class.QWidget, %"class.Ui::Paintbox", i32, [4 x i8], %class.QHash, ptr, i32, [4 x i8], ptr, i8, [3 x i8], %class.QPoint, [4 x i8] }>
%class.QWidget = type { %class.QObject, %class.QPaintDevice, ptr }
%class.QObject = type { ptr, %class.QScopedPointer }
%class.QScopedPointer = type { ptr }
%class.QPaintDevice = type { ptr, i16, ptr }
%"class.Ui::Paintbox" = type { %class.Ui_Paintbox }
%class.Ui_Paintbox = type { ptr, ptr, ptr, ptr, ptr, ptr, ptr, ptr, ptr, ptr, ptr, ptr, ptr, ptr, ptr, ptr, ptr, ptr, ptr, ptr, ptr, ptr, ptr, ptr, ptr, ptr, ptr, ptr, ptr, ptr, ptr, ptr, ptr, ptr, ptr, ptr, ptr, ptr, ptr, ptr, ptr, ptr, ptr, ptr, ptr, ptr, ptr, ptr, ptr, ptr, ptr, ptr, ptr, ptr, ptr, ptr, ptr, ptr, ptr, ptr, ptr, ptr, ptr, ptr, ptr, ptr, ptr, ptr, ptr, ptr, ptr, ptr, ptr, ptr, ptr, ptr, ptr, ptr, ptr, ptr, ptr, ptr, ptr, ptr, ptr, ptr, ptr, ptr, ptr, ptr, ptr, ptr, ptr }
%class.QHash = type { %union.anon }
%union.anon = type { ptr }
%class.QPoint = type { i32, i32 }
%"class.QHash<QWidget *, QUndoStack *>::iterator" = type { ptr }
%struct.QHashNode = type { ptr, i32, ptr, ptr }

; Function Attrs: mustprogress nounwind willreturn memory(none) uwtable
define linkonce_odr noundef i32 @_Z5qHashyj(i64 noundef %0, i32 noundef %1) #8 comdat {
  %3 = alloca i64, align 8
  %4 = alloca i32, align 4
  store i64 %0, ptr %3, align 8
  store i32 %1, ptr %4, align 4
  %5 = load i64, ptr %3, align 8
  %6 = lshr i64 %5, 31
  %7 = load i64, ptr %3, align 8
  %8 = xor i64 %6, %7
  %9 = and i64 %8, 4294967295
  %10 = trunc i64 %9 to i32
  %11 = load i32, ptr %4, align 4
  %12 = xor i32 %10, %11
  ret i32 %12
}

; Function Attrs: mustprogress nounwind uwtable
define linkonce_odr noundef zeroext i1 @_ZNK9QHashNodeIP7QWidgetP10QUndoStackE8same_keyEjRKS1_(ptr noundef nonnull align 8 dereferenceable(32) %0, i32 noundef %1, ptr noundef nonnull align 8 dereferenceable(8) %2) #3 comdat align 2 {
  %4 = alloca ptr, align 8
  %5 = alloca i32, align 4
  %6 = alloca ptr, align 8
  store ptr %0, ptr %4, align 8
  store i32 %1, ptr %5, align 4
  store ptr %2, ptr %6, align 8
  %7 = load ptr, ptr %4, align 8
  %8 = load i32, ptr %5, align 4
  %9 = getelementptr inbounds %struct.QHashNode, ptr %7, i32 0, i32 1
  %10 = load i32, ptr %9, align 8
  %11 = icmp eq i32 %8, %10
  br i1 %11, label %12, label %18

12:                                               ; preds = %3
  %13 = load ptr, ptr %6, align 8
  %14 = load ptr, ptr %13, align 8
  %15 = getelementptr inbounds %struct.QHashNode, ptr %7, i32 0, i32 2
  %16 = load ptr, ptr %15, align 8
  %17 = icmp eq ptr %14, %16
  br label %18

18:                                               ; preds = %12, %3
  %19 = phi i1 [ false, %3 ], [ %17, %12 ]
  ret i1 %19
}

; Function Attrs: mustprogress nounwind uwtable
define linkonce_odr noundef i32 @_Z5qHashI7QWidgetEjPKT_j(ptr noundef %0, i32 noundef %1) #3 comdat {
  %3 = alloca ptr, align 8
  %4 = alloca i32, align 4
  store ptr %0, ptr %3, align 8
  store i32 %1, ptr %4, align 4
  %5 = load ptr, ptr %3, align 8
  %6 = ptrtoint ptr %5 to i64
  %7 = load i32, ptr %4, align 4
  %8 = call noundef i32 @_Z5qHashyj(i64 noundef %6, i32 noundef %7) #16
  ret i32 %8
}

; Function Attrs: mustprogress uwtable
define linkonce_odr noundef ptr @_ZNK5QHashIP7QWidgetP10QUndoStackE8findNodeERKS1_j(ptr noundef nonnull align 8 dereferenceable(8) %0, ptr noundef nonnull align 8 dereferenceable(8) %1, i32 noundef %2) #0 comdat align 2 {
  %4 = alloca ptr, align 8
  %5 = alloca ptr, align 8
  %6 = alloca i32, align 4
  %7 = alloca ptr, align 8
  store ptr %0, ptr %4, align 8
  store ptr %1, ptr %5, align 8
  store i32 %2, ptr %6, align 4
  %8 = load ptr, ptr %4, align 8
  %9 = getelementptr inbounds %class.QHash, ptr %8, i32 0, i32 0
  %10 = load ptr, ptr %9, align 8
  %11 = getelementptr inbounds %struct.QHashData, ptr %10, i32 0, i32 7
  %12 = load i32, ptr %11, align 8
  %13 = icmp ne i32 %12, 0
  br i1 %13, label %14, label %47

14:                                               ; preds = %3
  %15 = getelementptr inbounds %class.QHash, ptr %8, i32 0, i32 0
  %16 = load ptr, ptr %15, align 8
  %17 = getelementptr inbounds %struct.QHashData, ptr %16, i32 0, i32 1
  %18 = load ptr, ptr %17, align 8
  %19 = load i32, ptr %6, align 4
  %20 = getelementptr inbounds %class.QHash, ptr %8, i32 0, i32 0
  %21 = load ptr, ptr %20, align 8
  %22 = getelementptr inbounds %struct.QHashData, ptr %21, i32 0, i32 7
  %23 = load i32, ptr %22, align 8
  %24 = urem i32 %19, %23
  %25 = zext i32 %24 to i64
  %26 = getelementptr inbounds ptr, ptr %18, i64 %25
  store ptr %26, ptr %7, align 8
  br label %27

27:                                               ; preds = %42, %14
  %28 = load ptr, ptr %7, align 8
  %29 = load ptr, ptr %28, align 8
  %30 = getelementptr inbounds %class.QHash, ptr %8, i32 0, i32 0
  %31 = load ptr, ptr %30, align 8
  %32 = icmp ne ptr %29, %31
  br i1 %32, label %33, label %40

33:                                               ; preds = %27
  %34 = load ptr, ptr %7, align 8
  %35 = load ptr, ptr %34, align 8
  %36 = load i32, ptr %6, align 4
  %37 = load ptr, ptr %5, align 8
  %38 = call noundef zeroext i1 @_ZNK9QHashNodeIP7QWidgetP10QUndoStackE8same_keyEjRKS1_(ptr noundef nonnull align 8 dereferenceable(32) %35, i32 noundef %36, ptr noundef nonnull align 8 dereferenceable(8) %37)
  %39 = xor i1 %38, true
  br label %40

40:                                               ; preds = %33, %27
  %41 = phi i1 [ false, %27 ], [ %39, %33 ]
  br i1 %41, label %42, label %46

42:                                               ; preds = %40
  %43 = load ptr, ptr %7, align 8
  %44 = load ptr, ptr %43, align 8
  %45 = getelementptr inbounds %struct.QHashNode, ptr %44, i32 0, i32 0
  store ptr %45, ptr %7, align 8
  br label %27, !llvm.loop !5

46:                                               ; preds = %40
  br label %49

47:                                               ; preds = %3
  %48 = getelementptr inbounds %class.QHash, ptr %8, i32 0, i32 0
  store ptr %48, ptr %7, align 8
  br label %49

49:                                               ; preds = %47, %46
  %50 = load ptr, ptr %7, align 8
  ret ptr %50
}

; Function Attrs: mustprogress nounwind uwtable
define linkonce_odr noundef i32 @_Z5qHashIP7QWidgetEjRKT_j(ptr noundef nonnull align 8 dereferenceable(8) %0, i32 noundef %1) #3 comdat {
  %3 = alloca ptr, align 8
  %4 = alloca i32, align 4
  store ptr %0, ptr %3, align 8
  store i32 %1, ptr %4, align 4
  %5 = load ptr, ptr %3, align 8
  %6 = load ptr, ptr %5, align 8
  %7 = call noundef i32 @_Z5qHashI7QWidgetEjPKT_j(ptr noundef %6, i32 noundef 0) #12
  %8 = load i32, ptr %4, align 4
  %9 = xor i32 %7, %8
  ret i32 %9
}

; Function Attrs: mustprogress uwtable
define linkonce_odr noundef ptr @_ZNK5QHashIP7QWidgetP10QUndoStackE8findNodeERKS1_Pj(ptr noundef nonnull align 8 dereferenceable(8) %0, ptr noundef nonnull align 8 dereferenceable(8) %1, ptr noundef %2) #0 comdat align 2 {
  %4 = alloca ptr, align 8
  %5 = alloca ptr, align 8
  %6 = alloca ptr, align 8
  %7 = alloca i32, align 4
  store ptr %0, ptr %4, align 8
  store ptr %1, ptr %5, align 8
  store ptr %2, ptr %6, align 8
  %8 = load ptr, ptr %4, align 8
  store i32 0, ptr %7, align 4
  %9 = getelementptr inbounds %class.QHash, ptr %8, i32 0, i32 0
  %10 = load ptr, ptr %9, align 8
  %11 = getelementptr inbounds %struct.QHashData, ptr %10, i32 0, i32 7
  %12 = load i32, ptr %11, align 8
  %13 = icmp ne i32 %12, 0
  br i1 %13, label %17, label %14

14:                                               ; preds = %3
  %15 = load ptr, ptr %6, align 8
  %16 = icmp ne ptr %15, null
  br i1 %16, label %17, label %30

17:                                               ; preds = %14, %3
  %18 = load ptr, ptr %5, align 8
  %19 = getelementptr inbounds %class.QHash, ptr %8, i32 0, i32 0
  %20 = load ptr, ptr %19, align 8
  %21 = getelementptr inbounds %struct.QHashData, ptr %20, i32 0, i32 8
  %22 = load i32, ptr %21, align 4
  %23 = call noundef i32 @_Z5qHashIP7QWidgetEjRKT_j(ptr noundef nonnull align 8 dereferenceable(8) %18, i32 noundef %22) #12
  store i32 %23, ptr %7, align 4
  %24 = load ptr, ptr %6, align 8
  %25 = icmp ne ptr %24, null
  br i1 %25, label %26, label %29

26:                                               ; preds = %17
  %27 = load i32, ptr %7, align 4
  %28 = load ptr, ptr %6, align 8
  store i32 %27, ptr %28, align 4
  br label %29

29:                                               ; preds = %26, %17
  br label %30

30:                                               ; preds = %29, %14
  %31 = load ptr, ptr %5, align 8
  %32 = load i32, ptr %7, align 4
  %33 = call noundef ptr @_ZNK5QHashIP7QWidgetP10QUndoStackE8findNodeERKS1_j(ptr noundef nonnull align 8 dereferenceable(8) %8, ptr noundef nonnull align 8 dereferenceable(8) %31, i32 noundef %32)
  ret ptr %33
}

; Function Attrs: mustprogress uwtable
define linkonce_odr noundef zeroext i1 @_ZNK5QHashIP7QWidgetP10QUndoStackE8containsERKS1_(ptr noundef nonnull align 8 dereferenceable(8) %0, ptr noundef nonnull align 8 dereferenceable(8) %1) #0 comdat align 2 {
  %3 = alloca ptr, align 8
  %4 = alloca ptr, align 8
  store ptr %0, ptr %3, align 8
  store ptr %1, ptr %4, align 8
  %5 = load ptr, ptr %3, align 8
  %6 = load ptr, ptr %4, align 8
  %7 = call noundef ptr @_ZNK5QHashIP7QWidgetP10QUndoStackE8findNodeERKS1_Pj(ptr noundef nonnull align 8 dereferenceable(8) %5, ptr noundef nonnull align 8 dereferenceable(8) %6, ptr noundef null)
  %8 = load ptr, ptr %7, align 8
  %9 = getelementptr inbounds %class.QHash, ptr %5, i32 0, i32 0
  %10 = load ptr, ptr %9, align 8
  %11 = icmp ne ptr %8, %10
  ret i1 %11
}

; Function Attrs: mustprogress uwtable
define void @_ZN8Paintbox12setUndoStackEP7QWidget(ptr noundef nonnull align 8 dereferenceable(844) %0, ptr noundef %1) #0 align 2 personality ptr @__gxx_personality_v0 {
  %3 = alloca ptr, align 8
  %4 = alloca ptr, align 8
  %5 = alloca ptr, align 8
  %6 = alloca ptr, align 8
  %7 = alloca i32, align 4
  %8 = alloca %"class.QHash<QWidget *, QUndoStack *>::iterator", align 8
  store ptr %0, ptr %3, align 8
  store ptr %1, ptr %4, align 8
  %9 = load ptr, ptr %3, align 8
  %10 = getelementptr inbounds %class.Paintbox, ptr %9, i32 0, i32 4
  %11 = call noundef zeroext i1 @_ZNK5QHashIP7QWidgetP10QUndoStackE8containsERKS1_(ptr noundef nonnull align 8 dereferenceable(8) %10, ptr noundef nonnull align 8 dereferenceable(8) %4)
  br i1 %11, label %12, label %18

12:                                               ; preds = %2
  %13 = getelementptr inbounds %class.Paintbox, ptr %9, i32 0, i32 5
  %14 = load ptr, ptr %13, align 8
  %15 = getelementptr inbounds %class.Paintbox, ptr %9, i32 0, i32 4
  %16 = call noundef nonnull align 8 dereferenceable(8) ptr @_ZN5QHashIP7QWidgetP10QUndoStackEixERKS1_(ptr noundef nonnull align 8 dereferenceable(8) %15, ptr noundef nonnull align 8 dereferenceable(8) %4)
  %17 = load ptr, ptr %16, align 8
  call void @_ZN10QUndoGroup14setActiveStackEP10QUndoStack(ptr noundef nonnull align 8 dereferenceable(16) %14, ptr noundef %17)
  br label %34

18:                                               ; preds = %2
  %19 = getelementptr inbounds %class.Paintbox, ptr %9, i32 0, i32 4
  %20 = call noalias noundef nonnull ptr @_Znwm(i64 noundef 16) #13
  %21 = load ptr, ptr %4, align 8
  invoke void @_ZN10QUndoStackC1EP7QObject(ptr noundef nonnull align 8 dereferenceable(16) %20, ptr noundef %21)
          to label %22 unwind label %30

22:                                               ; preds = %18
  store ptr %20, ptr %5, align 8
  %23 = call ptr @_ZN5QHashIP7QWidgetP10QUndoStackE6insertERKS1_RKS3_(ptr noundef nonnull align 8 dereferenceable(8) %19, ptr noundef nonnull align 8 dereferenceable(8) %4, ptr noundef nonnull align 8 dereferenceable(8) %5)
  %24 = getelementptr inbounds %"class.QHash<QWidget *, QUndoStack *>::iterator", ptr %8, i32 0, i32 0
  store ptr %23, ptr %24, align 8
  %25 = getelementptr inbounds %class.Paintbox, ptr %9, i32 0, i32 5
  %26 = load ptr, ptr %25, align 8
  %27 = getelementptr inbounds %class.Paintbox, ptr %9, i32 0, i32 4
  %28 = call noundef nonnull align 8 dereferenceable(8) ptr @_ZN5QHashIP7QWidgetP10QUndoStackEixERKS1_(ptr noundef nonnull align 8 dereferenceable(8) %27, ptr noundef nonnull align 8 dereferenceable(8) %4)
  %29 = load ptr, ptr %28, align 8
  call void @_ZN10QUndoGroup14setActiveStackEP10QUndoStack(ptr noundef nonnull align 8 dereferenceable(16) %26, ptr noundef %29)
  br label %34

30:                                               ; preds = %18
  %31 = landingpad { ptr, i32 }
          cleanup
  %32 = extractvalue { ptr, i32 } %31, 0
  store ptr %32, ptr %6, align 8
  %33 = extractvalue { ptr, i32 } %31, 1
  store i32 %33, ptr %7, align 4
  call void @_ZdlPv(ptr noundef %20) #14
  br label %35

34:                                               ; preds = %22, %12
  ret void

35:                                               ; preds = %30
  %36 = load ptr, ptr %6, align 8
  %37 = load i32, ptr %7, align 4
  %38 = insertvalue { ptr, i32 } poison, ptr %36, 0
  %39 = insertvalue { ptr, i32 } %38, i32 %37, 1
  resume { ptr, i32 } %39
}