; Function Attrs: mustprogress uwtable
define void @_ZN8Paintbox12setUndoStackEP7QWidget(ptr noundef nonnull align 8 dereferenceable(844) %0, ptr noundef %1) local_unnamed_addr #0 align 2 personality ptr @__gxx_personality_v0 {
  %3 = alloca ptr, align 8
  %4 = alloca ptr, align 8
  store ptr %1, ptr %3, align 8
  %5 = getelementptr inbounds i8, ptr %0, i64 800
  %6 = load ptr, ptr %5, align 8
  %7 = getelementptr inbounds i8, ptr %6, i64 32
  %8 = load i32, ptr %7, align 8
  %.not.i = icmp eq i32 %8, 0
  br i1 %.not.i, label %_ZNK5QHashIP7QWidgetP10QUndoStackE8containsERKS1_.exit.thread, label %9

9:                                                ; preds = %2
  %10 = getelementptr inbounds i8, ptr %6, i64 36
  %11 = load i32, ptr %10, align 4
  %12 = ptrtoint ptr %1 to i64
  %13 = lshr i64 %12, 31
  %14 = xor i64 %13, %12
  %15 = trunc i64 %14 to i32
  %16 = xor i32 %11, %15
  %17 = getelementptr inbounds i8, ptr %6, i64 8
  %18 = load ptr, ptr %17, align 8
  %19 = urem i32 %16, %8
  %20 = zext i32 %19 to i64
  %21 = getelementptr inbounds ptr, ptr %18, i64 %20
  br label %22

22:                                               ; preds = %24, %9
  %.0.i.i.i = phi ptr [ %21, %9 ], [ %23, %24 ]
  %23 = load ptr, ptr %.0.i.i.i, align 8
  %.not9.i.i.i = icmp eq ptr %23, %6
  br i1 %.not9.i.i.i, label %_ZNK5QHashIP7QWidgetP10QUndoStackE8containsERKS1_.exit.thread, label %24

24:                                               ; preds = %22
  %25 = getelementptr inbounds i8, ptr %23, i64 8
  %26 = load i32, ptr %25, align 8
  %27 = icmp eq i32 %26, %16
  %28 = getelementptr inbounds i8, ptr %23, i64 16
  %29 = load ptr, ptr %28, align 8
  %30 = icmp eq ptr %29, %1
  %31 = select i1 %27, i1 %30, i1 false
  br i1 %31, label %_ZNK5QHashIP7QWidgetP10QUndoStackE8containsERKS1_.exit, label %22, !llvm.loop !5

_ZNK5QHashIP7QWidgetP10QUndoStackE8containsERKS1_.exit: ; preds = %24
  %.not = icmp eq ptr %23, %6
  br i1 %.not, label %_ZNK5QHashIP7QWidgetP10QUndoStackE8containsERKS1_.exit.thread, label %37

_ZNK5QHashIP7QWidgetP10QUndoStackE8containsERKS1_.exit.thread: ; preds = %22, %2, %_ZNK5QHashIP7QWidgetP10QUndoStackE8containsERKS1_.exit
  %32 = tail call noalias noundef nonnull dereferenceable(16) ptr @_Znwm(i64 noundef 16) #17
  invoke void @_ZN10QUndoStackC1EP7QObject(ptr noundef nonnull align 8 dereferenceable(16) %32, ptr noundef %1)
          to label %33 unwind label %35

33:                                               ; preds = %_ZNK5QHashIP7QWidgetP10QUndoStackE8containsERKS1_.exit.thread
  store ptr %32, ptr %4, align 8
  %34 = call ptr @_ZN5QHashIP7QWidgetP10QUndoStackE6insertERKS1_RKS3_(ptr noundef nonnull align 8 dereferenceable(8) %5, ptr noundef nonnull align 8 dereferenceable(8) %3, ptr noundef nonnull align 8 dereferenceable(8) %4)
  br label %37

35:                                               ; preds = %_ZNK5QHashIP7QWidgetP10QUndoStackE8containsERKS1_.exit.thread
  %36 = landingpad { ptr, i32 }
          cleanup
  tail call void @_ZdlPv(ptr noundef nonnull %32) #19
  resume { ptr, i32 } %36

37:                                               ; preds = %_ZNK5QHashIP7QWidgetP10QUndoStackE8containsERKS1_.exit, %33
  %38 = getelementptr inbounds i8, ptr %0, i64 808
  %39 = load ptr, ptr %38, align 8
  %40 = call noundef nonnull align 8 dereferenceable(8) ptr @_ZN5QHashIP7QWidgetP10QUndoStackEixERKS1_(ptr noundef nonnull align 8 dereferenceable(8) %5, ptr noundef nonnull align 8 dereferenceable(8) %3)
  %41 = load ptr, ptr %40, align 8
  call void @_ZN10QUndoGroup14setActiveStackEP10QUndoStack(ptr noundef nonnull align 8 dereferenceable(16) %39, ptr noundef %41)
  ret void
}